--- !tapi-tbd
tbd-version:     4
targets:         [ i386-ios-simulator, x86_64-ios-simulator, arm64-ios-simulator ]
install-name:    '/System/Library/Frameworks/CoreAudio.framework/CoreAudio'
exports:
  - targets:         [ i386-ios-simulator, x86_64-ios-simulator, arm64-ios-simulator ]
    symbols:         [ _AudioConvertHostTimeToNanos, _AudioConvertNanosToHostTime, 
                       _AudioDeviceAddIOProc, _AudioDeviceAddPropertyListener, _AudioDeviceCreateIOProcID, 
                       _AudioDeviceCreateIOProcIDWithBlock, _AudioDeviceCreateIOProcIDWithClockedBlock, 
                       _AudioDeviceCreateIOProcIDWithClockedProc, _AudioDeviceDestroyIOProcID, 
                       _AudioDeviceDuck, _AudioDeviceEnterMode, _AudioDeviceExitMode, 
                       _AudioDeviceGetCurrentTime, _AudioDeviceGetNearestStartTime, 
                       _AudioDeviceGetProperty, _AudioDeviceGetPropertyInfo, _AudioDeviceRead, 
                       _AudioDeviceRemoveIOProc, _AudioDeviceRemovePropertyListener, 
                       _AudioDeviceRun, _AudioDeviceSetProperty, _AudioDeviceStart, 
                       _AudioDeviceStartAtTime, _AudioDeviceStop, _AudioDeviceTranslateTime, 
                       _AudioDeviceWrite, _AudioDriverPlugInClose, _AudioDriverPlugInDeviceGetProperty, 
                       _AudioDriverPlugInDeviceGetPropertyInfo, _AudioDriverPlugInDeviceSetProperty, 
                       _AudioDriverPlugInOpen, _AudioDriverPlugInStreamGetProperty, 
                       _AudioDriverPlugInStreamGetPropertyInfo, _AudioDriverPlugInStreamSetProperty, 
                       _AudioGetCurrentHostTime, _AudioGetHostClockFrequency, _AudioGetHostClockMinimumTimeDelta, 
                       _AudioHardwareAddPropertyListener, _AudioHardwareAddRunLoopSource, 
                       _AudioHardwareBeMaster, _AudioHardwareClaimAudioDeviceID, 
                       _AudioHardwareClaimAudioStreamID, _AudioHardwareCreateAggregateDevice, 
                       _AudioHardwareCreateProcessTap, _AudioHardwareDestroyAggregateDevice, 
                       _AudioHardwareDestroyProcessTap, _AudioHardwareDevicePropertyChanged, 
                       _AudioHardwareDevicesCreated, _AudioHardwareDevicesDied, _AudioHardwareGetProperty, 
                       _AudioHardwareGetPropertyInfo, _AudioHardwareReloadServerSettings, 
                       _AudioHardwareRemovePropertyListener, _AudioHardwareRemoveRunLoopSource, 
                       _AudioHardwareSetProperty, _AudioHardwareStartServer, _AudioHardwareStreamPropertyChanged, 
                       _AudioHardwareStreamsCreated, _AudioHardwareStreamsDied, _AudioHardwareUnload, 
                       _AudioObjectAddPropertyListener, _AudioObjectAddPropertyListenerBlock, 
                       _AudioObjectAddPropertyListenerInternal, _AudioObjectCreate, 
                       _AudioObjectExists, _AudioObjectGetPropertyData, _AudioObjectGetPropertyDataSize, 
                       _AudioObjectHasProperty, _AudioObjectIsOnListenerThread, _AudioObjectIsPropertySettable, 
                       _AudioObjectPropertiesChanged, _AudioObjectRemovePropertyListener, 
                       _AudioObjectRemovePropertyListenerBlock, _AudioObjectSetPropertyData, 
                       _AudioObjectShow, _AudioObjectsPublishedAndDied, _AudioStreamAddPropertyListener, 
                       _AudioStreamGetProperty, _AudioStreamGetPropertyInfo, _AudioStreamRemovePropertyListener, 
                       _AudioStreamSetProperty ]
    objc-classes:    [ CAActiveDeviceStreamsForProcess, CAProcessDevicePair, CATapDescription ]
  - targets:         [ x86_64-ios-simulator, arm64-ios-simulator ]
    symbols:         [ __ZN4AMCP13Feature_Flags11run_new_halEv, __ZN4AMCP13Feature_Flags12host_asp_oopEv, 
                       __ZN4AMCP13Feature_Flags14run_hybrid_halEv, __ZN4AMCP13Feature_Flags15set_run_new_halEb, 
                       __ZN4AMCP13Feature_Flags16load_adm_dsp_libEv, __ZN4AMCP13Feature_Flags16set_host_asp_oopEb, 
                       __ZN4AMCP13Feature_Flags17event_link_oop_ioEv, __ZN4AMCP13Feature_Flags18set_run_hybrid_halEb, 
                       __ZN4AMCP13Feature_Flags19collect_io_perfdataEv, __ZN4AMCP13Feature_Flags19force_mock_dsp_typeEv, 
                       __ZN4AMCP13Feature_Flags20internal_drivers_oopEv, __ZN4AMCP13Feature_Flags20set_load_adm_dsp_libEb, 
                       __ZN4AMCP13Feature_Flags21set_event_link_oop_ioEb, __ZN4AMCP13Feature_Flags22allow_mcp_and_hal_coexEv, 
                       __ZN4AMCP13Feature_Flags23set_collect_io_perfdataEb, __ZN4AMCP13Feature_Flags23set_force_mock_dsp_typeEb, 
                       __ZN4AMCP13Feature_Flags24set_internal_drivers_oopEb, __ZN4AMCP13Feature_Flags26set_allow_mcp_and_hal_coexEb, 
                       __ZN4AMCP14Implementation20generate_type_markerERKSt9type_info, 
                       __ZN4AMCP14System_Context20System_Context_StateD1Ev, __ZN4AMCP14System_Context20System_Context_StateD2Ev, 
                       __ZN4AMCP14System_ContextC1ENS0_15Load_No_DriversE, __ZN4AMCP14System_ContextC1ENS0_16Load_All_DriversE, 
                       __ZN4AMCP14System_ContextC1ENS0_21Load_Null_Driver_OnlyE, 
                       __ZN4AMCP14System_ContextC1ENS0_26Load_Null_And_Meta_DriversE, 
                       __ZN4AMCP14System_ContextC1ENS0_28Load_AudioServerPlugIns_OnlyE, 
                       __ZN4AMCP14System_ContextC1ENS0_30Load_Multi_Client_Drivers_OnlyE, 
                       __ZN4AMCP14System_ContextC1ERKNSt3__16vectorIN10applesauce2CF9StringRefENS1_9allocatorIS5_EEEESA_, 
                       __ZN4AMCP14System_ContextC2ENS0_15Load_No_DriversE, __ZN4AMCP14System_ContextC2ENS0_16Load_All_DriversE, 
                       __ZN4AMCP14System_ContextC2ENS0_21Load_Null_Driver_OnlyE, 
                       __ZN4AMCP14System_ContextC2ENS0_26Load_Null_And_Meta_DriversE, 
                       __ZN4AMCP14System_ContextC2ENS0_28Load_AudioServerPlugIns_OnlyE, 
                       __ZN4AMCP14System_ContextC2ENS0_30Load_Multi_Client_Drivers_OnlyE, 
                       __ZN4AMCP14System_ContextC2ERKNSt3__16vectorIN10applesauce2CF9StringRefENS1_9allocatorIS5_EEEESA_, 
                       __ZN4AMCP14System_ContextD1Ev, __ZN4AMCP14System_ContextD2Ev, 
                       __ZN4AMCP19get_property_traitsEj, __ZN4AMCP20add_available_formatERNSt3__16vectorINS0_5tupleIJN2CA14ValueRangeListENS3_17StreamDescriptionEEEENS0_9allocatorIS6_EEEERKNS3_23RangedStreamDescriptionE, 
                       __ZN4AMCP24make_string_for_class_idEj, __ZN4AMCP25graph_description_to_jsonERKNS_17Graph_DescriptionE, 
                       __ZN4AMCP26is_stock_property_selectorEj, __ZN4AMCP26is_stock_property_selectorEjj, 
                       __ZN4AMCP26make_available_format_listERKNSt3__16vectorIN2CA17StreamDescriptionENS0_9allocatorIS3_EEEE, 
                       __ZN4AMCP26make_available_format_listERKNSt3__16vectorIN2CA23RangedStreamDescriptionENS0_9allocatorIS3_EEEE, 
                       __ZN4AMCP27get_stock_class_traits_listEv, __ZN4AMCP27graph_description_from_jsonERKNSt3__112basic_stringIcNS0_11char_traitsIcEENS0_9allocatorIcEEEE, 
                       __ZN4AMCP28get_box_property_traits_listEv, __ZN4AMCP29get_property_traits_for_classEj, 
                       __ZN4AMCP29is_required_property_selectorEj, __ZN4AMCP30get_clock_property_traits_listEv, 
                       __ZN4AMCP30is_invariant_property_selectorEj, __ZN4AMCP30make_string_for_transport_typeEj, 
                       __ZN4AMCP31get_device_property_traits_listEv, __ZN4AMCP31get_driver_property_traits_listEv, 
                       __ZN4AMCP31get_object_property_traits_listEv, __ZN4AMCP31get_stream_property_traits_listEv, 
                       __ZN4AMCP31get_system_property_traits_listEv, __ZN4AMCP32get_control_property_traits_listEv, 
                       __ZN4AMCP33modify_graph_destroy_list_to_jsonERKNS_25Modify_Graph_Destroy_ListE, 
                       __ZN4AMCP33property_selector_may_be_settableEj, __ZN4AMCP34extended_graph_description_to_jsonERKNS_26Extended_Graph_DescriptionE, 
                       __ZN4AMCP36extended_graph_description_from_jsonERKNSt3__112basic_stringIcNS0_11char_traitsIcEENS0_9allocatorIcEEEE, 
                       __ZN4AMCP36get_property_traits_for_hal_selectorEj, __ZN4AMCP38get_level_control_property_traits_listEv, 
                       __ZN4AMCP39get_slider_control_property_traits_listEv, __ZN4AMCP3HAL25get_hal_type_code_for_mcpENS_18Property_Type_CodeE, 
                       __ZN4AMCP3HAL31hal_property_value_is_object_idEj, __ZN4AMCP3HAL32get_hal_property_value_type_codeEj, 
                       __ZN4AMCP3HAL34translate_hal_value_to_mcp_by_typeERKN10applesauce2CF7DataRefENS0_22HAL_Property_Type_CodeENS_18Property_Type_CodeE, 
                       __ZN4AMCP3HAL34translate_mcp_value_to_hal_by_typeERKNS_5ThingENS_18Property_Type_CodeENS0_22HAL_Property_Type_CodeE, 
                       __ZN4AMCP3HAL35type_code_from_custom_property_typeEj, __ZN4AMCP3HAL36get_hal_property_qualifier_type_codeEj, 
                       __ZN4AMCP3HAL39translate_hal_control_address_to_deviceEjjjRK26AudioObjectPropertyAddress, 
                       __ZN4AMCP40get_boolean_control_property_traits_listEv, __ZN4AMCP41get_selector_control_property_traits_listEv, 
                       __ZN4AMCP43get_stereo_pan_control_property_traits_listEv, 
                       __ZN4AMCP4Node19get_latency_handlerEv, __ZN4AMCP4Node19set_latency_handlerERKNSt3__18functionIFxvEEE, 
                       __ZN4AMCP4Node21get_client_io_handlerEv, __ZN4AMCP4Node21get_end_cycle_handlerEv, 
                       __ZN4AMCP4Node21get_tail_time_handlerEv, __ZN4AMCP4Node21set_client_io_handlerERKNSt3__18functionIFvjRKNS_15Proc_Cycle_InfoEmPNS_11Proc_StreamEmS7_EEE, 
                       __ZN4AMCP4Node21set_end_cycle_handlerERKNSt3__18functionIFvjEEE, 
                       __ZN4AMCP4Node21set_end_cycle_handlerERKNSt3__18functionIFvjRKNS_15Proc_Cycle_InfoEEEE, 
                       __ZN4AMCP4Node21set_tail_time_handlerERKNSt3__18functionIFxvEEE, 
                       __ZN4AMCP4Node23get_begin_cycle_handlerEv, __ZN4AMCP4Node23get_io_overload_handlerEv, 
                       __ZN4AMCP4Node23set_begin_cycle_handlerERKNSt3__18functionIFvjEEE, 
                       __ZN4AMCP4Node23set_begin_cycle_handlerERKNSt3__18functionIFvjRKNS_15Proc_Cycle_InfoEEEE, 
                       __ZN4AMCP4Node23set_io_overload_handlerERKNSt3__18functionIFvjEEE, 
                       __ZN4AMCP4Node26get_end_processing_handlerEv, __ZN4AMCP4Node26set_end_processing_handlerERKNSt3__18functionIFvjEEE, 
                       __ZN4AMCP4Node27get_io_thread_error_handlerEv, __ZN4AMCP4Node27get_register_client_handlerEv, 
                       __ZN4AMCP4Node27set_io_thread_error_handlerERKNSt3__18functionIFvvEEE, 
                       __ZN4AMCP4Node27set_register_client_handlerERKNSt3__18functionIFvjEEE, 
                       __ZN4AMCP4Node28get_begin_processing_handlerEv, __ZN4AMCP4Node28set_begin_processing_handlerERKNSt3__18functionIFvjEEE, 
                       __ZN4AMCP4Node29get_unregister_client_handlerEv, __ZN4AMCP4Node29set_unregister_client_handlerERKNSt3__18functionIFvjEEE, 
                       __ZN4AMCP4Node31get_connections_changed_handlerEv, __ZN4AMCP4Node31set_connections_changed_handlerERKNSt3__18functionIFvmmEEE, 
                       __ZN4AMCP4Node53get_expected_output_samples_for_input_samples_handlerEv, 
                       __ZN4AMCP4Node53get_required_input_samples_for_output_samples_handlerEv, 
                       __ZN4AMCP4Node53set_expected_output_samples_for_input_samples_handlerERKNSt3__18functionIFyyRyEEE, 
                       __ZN4AMCP4Node53set_required_input_samples_for_output_samples_handlerERKNSt3__18functionIFyyEEE, 
                       __ZN4AMCP4NodeC1ERNS_14System_ContextEN10applesauce2CF9StringRefE, 
                       __ZN4AMCP4NodeC1ERNS_14System_ContextEj, __ZN4AMCP4NodeC2ERNS_14System_ContextEN10applesauce2CF9StringRefE, 
                       __ZN4AMCP4NodeC2ERNS_14System_ContextEj, __ZN4AMCP4NodeD0Ev, 
                       __ZN4AMCP4NodeD1Ev, __ZN4AMCP4NodeD2Ev, __ZN4AMCP52create_device_node_uid_from_device_uid_and_directionERKN10applesauce2CF9StringRefENS_9DirectionE, 
                       __ZN4AMCP5ClockC1ERNS_14System_ContextEN10applesauce2CF9StringRefE, 
                       __ZN4AMCP5ClockC1ERNS_14System_ContextENSt3__110shared_ptrINS_4Core4CoreEEE, 
                       __ZN4AMCP5ClockC1ERNS_14System_ContextEj, __ZN4AMCP5ClockC2ERNS_14System_ContextEN10applesauce2CF9StringRefE, 
                       __ZN4AMCP5ClockC2ERNS_14System_ContextENSt3__110shared_ptrINS_4Core4CoreEEE, 
                       __ZN4AMCP5ClockC2ERNS_14System_ContextEj, __ZN4AMCP5ClockD0Ev, 
                       __ZN4AMCP5ClockD1Ev, __ZN4AMCP5ClockD2Ev, __ZN4AMCP6DriverC1ERNS_14System_ContextEN10applesauce2CF9StringRefE, 
                       __ZN4AMCP6DriverC1ERNS_14System_ContextEj, __ZN4AMCP6DriverC2ERNS_14System_ContextEN10applesauce2CF9StringRefE, 
                       __ZN4AMCP6DriverC2ERNS_14System_ContextEj, __ZN4AMCP6DriverD0Ev, 
                       __ZN4AMCP6DriverD1Ev, __ZN4AMCP6DriverD2Ev, __ZN4AMCP6Object25constructed_correct_classEj, 
                       __ZN4AMCP6ObjectC1ERNS_14System_ContextERKNSt3__110shared_ptrINS_4Core4CoreEEE, 
                       __ZN4AMCP6ObjectC1ERNS_14System_ContextEj, __ZN4AMCP6ObjectC2ERNS_14System_ContextERKNSt3__110shared_ptrINS_4Core4CoreEEE, 
                       __ZN4AMCP6ObjectC2ERNS_14System_ContextEj, __ZN4AMCP6ObjectD0Ev, 
                       __ZN4AMCP6ObjectD1Ev, __ZN4AMCP6ObjectD2Ev, __ZN4AMCP6System11get_node_idERKN10applesauce2CF9StringRefE, 
                       __ZN4AMCP6System12modify_graphERKNS_17Graph_DescriptionERKNS_25Modify_Graph_Destroy_ListE, 
                       __ZN4AMCP6System18get_wires_for_nodeEj, __ZN4AMCP6System18node_uid_is_uniqueERKN10applesauce2CF9StringRefE, 
                       __ZN4AMCP6System18update_power_stateENS_11Power_StateE, __ZN4AMCP6System19set_volume_for_wireERKNS_15Wire_IdentifierEfN2CA9TimeStampE, 
                       __ZN4AMCP6System22Config_Change_Observer5resetEv, __ZN4AMCP6System22Config_Change_ObserverC1ERNS_14System_ContextEy, 
                       __ZN4AMCP6System22Config_Change_ObserverC1ERNS_14System_ContextEyb, 
                       __ZN4AMCP6System22Config_Change_ObserverC2ERNS_14System_ContextEy, 
                       __ZN4AMCP6System22Config_Change_ObserverC2ERNS_14System_ContextEyb, 
                       __ZN4AMCP6System22Config_Change_ObserverD1Ev, __ZN4AMCP6System22Config_Change_ObserverD2Ev, 
                       __ZN4AMCP6System24set_volume_ramp_for_wireERKNS_15Wire_IdentifierEfN2CA9TimeStampES5_, 
                       __ZN4AMCP6System26All_Control_Value_Observer5resetEv, __ZN4AMCP6System26All_Control_Value_ObserverC1ERNS_14System_ContextEy, 
                       __ZN4AMCP6System26All_Control_Value_ObserverC2ERNS_14System_ContextEy, 
                       __ZN4AMCP6System26All_Control_Value_ObserverD1Ev, __ZN4AMCP6System26All_Control_Value_ObserverD2Ev, 
                       __ZN4AMCP6System30get_wire_connection_propertiesERKNS_15Wire_IdentifierE, 
                       __ZN4AMCP6System33create_all_control_value_observerERKNSt3__18functionIFvjEEE, 
                       __ZN4AMCP6System9get_wiresEv, __ZN4AMCP6SystemC1ERNS_14System_ContextE, 
                       __ZN4AMCP6SystemC2ERNS_14System_ContextE, __ZN4AMCP6SystemD0Ev, 
                       __ZN4AMCP6SystemD1Ev, __ZN4AMCP6SystemD2Ev, __ZN4AMCP7Address21make_string_for_scopeEj, 
                       __ZN4AMCP9IOContext12stop_runningEv, __ZN4AMCP9IOContext13start_at_timeEy, 
                       __ZN4AMCP9IOContext13start_runningEb, __ZN4AMCP9IOContext13start_runningEv, 
                       __ZN4AMCP9IOContext15stop_prewarmingEv, __ZN4AMCP9IOContext16start_prewarmingEb, 
                       __ZN4AMCP9IOContext16start_prewarmingEv, __ZN4AMCP9IOContext18set_io_cycle_usageEf, 
                       __ZN4AMCP9IOContext19sleeping_is_allowedEv, __ZN4AMCP9IOContext21get_client_io_handlerEv, 
                       __ZN4AMCP9IOContext21set_buffer_frame_sizeEj, __ZN4AMCP9IOContext21set_client_io_handlerERKNSt3__18functionIFvjRKNS_15Proc_Cycle_InfoEmPNS_11Proc_StreamEmS7_EEE, 
                       __ZN4AMCP9IOContext23get_io_overload_handlerEv, __ZN4AMCP9IOContext23get_os_workgroup_handleEv, 
                       __ZN4AMCP9IOContext23set_io_overload_handlerERKNSt3__18functionIFvjEEE, 
                       __ZN4AMCP9IOContext23set_os_workgroup_handleERKN5caulk4mach29os_workgroup_interval_managedE, 
                       __ZN4AMCP9IOContext23set_sleeping_is_allowedEb, __ZN4AMCP9IOContext25can_play_during_dark_wakeEv, 
                       __ZN4AMCP9IOContext26get_end_processing_handlerEv, __ZN4AMCP9IOContext26set_end_processing_handlerERKNSt3__18functionIFvjEEE, 
                       __ZN4AMCP9IOContext27get_io_thread_error_handlerEv, __ZN4AMCP9IOContext27set_io_thread_error_handlerERKNSt3__18functionIFvvEEE, 
                       __ZN4AMCP9IOContext29set_can_play_during_dark_wakeEb, __ZN4AMCP9IOContext33can_play_during_notification_wakeEv, 
                       __ZN4AMCP9IOContext33handle_overload_with_catchup_modeEb, 
                       __ZN4AMCP9IOContext37get_should_resume_after_config_changeEv, 
                       __ZN4AMCP9IOContext37set_can_play_during_notification_wakeEb, 
                       __ZN4AMCP9IOContext37set_should_resume_after_config_changeEb, 
                       __ZN4AMCP9IOContextC1ERNS_14System_ContextEN10applesauce2CF9StringRefE, 
                       __ZN4AMCP9IOContextC1ERNS_14System_ContextEj, __ZN4AMCP9IOContextC2ERNS_14System_ContextEN10applesauce2CF9StringRefE, 
                       __ZN4AMCP9IOContextC2ERNS_14System_ContextEj, __ZN4AMCP9IOContextD0Ev, 
                       __ZN4AMCP9IOContextD1Ev, __ZN4AMCP9IOContextD2Ev, __ZNK4AMCP4Node12is_connectedEv, 
                       __ZNK4AMCP4Node14translate_timeEN2CA9TimeStampE, __ZNK4AMCP4Node15get_descriptionEv, 
                       __ZNK4AMCP4Node16get_current_timeEv, __ZNK4AMCP4Node7get_uidEv, 
                       __ZNK4AMCP4Node8get_typeEv, __ZNK4AMCP4Node9get_clockEv, __ZNK4AMCP5Clock13get_model_uidERKN10applesauce2CF9StringRefE, 
                       __ZNK4AMCP5Clock13get_model_uidEv, __ZNK4AMCP5Clock14get_device_uidEv, 
                       __ZNK4AMCP5Clock15get_sample_rateEv, __ZNK4AMCP5Clock15set_sample_rateEd, 
                       __ZNK4AMCP5Clock16get_clock_domainEv, __ZNK4AMCP5Clock17get_input_latencyEv, 
                       __ZNK4AMCP5Clock18get_output_latencyEv, __ZNK4AMCP5Clock18get_transport_typeEv, 
                       __ZNK4AMCP5Clock24set_sample_rate_and_waitEd, __ZNK4AMCP5Clock30get_available_sample_rate_listEv, 
                       __ZNK4AMCP5Clock9is_hiddenEv, __ZNK4AMCP6Driver12get_box_listEv, 
                       __ZNK4AMCP6Driver13get_bundle_idEv, __ZNK4AMCP6Driver14get_clock_listEv, 
                       __ZNK4AMCP6Driver15get_device_listEv, __ZNK4AMCP6Object11get_controlEjjj, 
                       __ZNK4AMCP6Object11get_creatorEv, __ZNK4AMCP6Object12get_class_idEv, 
                       __ZNK4AMCP6Object12has_propertyERKNS_7AddressE, __ZNK4AMCP6Object14get_model_nameERKN10applesauce2CF9StringRefE, 
                       __ZNK4AMCP6Object14get_model_nameEv, __ZNK4AMCP6Object16get_control_listEj, 
                       __ZNK4AMCP6Object16get_element_nameERKNS_7AddressE, __ZNK4AMCP6Object16get_element_nameERKNS_7AddressERKN10applesauce2CF9StringRefE, 
                       __ZNK4AMCP6Object17get_serial_numberERKN10applesauce2CF9StringRefE, 
                       __ZNK4AMCP6Object17get_serial_numberEv, __ZNK4AMCP6Object18get_property_valueERKNS_7AddressE, 
                       __ZNK4AMCP6Object18get_property_valueERKNS_7AddressERKNS_5ThingE, 
                       __ZNK4AMCP6Object18get_stock_class_idEv, __ZNK4AMCP6Object18set_property_valueERKNS_7AddressERKNS_5ThingE, 
                       __ZNK4AMCP6Object20get_firmware_versionERKN10applesauce2CF9StringRefE, 
                       __ZNK4AMCP6Object20get_firmware_versionEv, __ZNK4AMCP6Object20get_localized_stringERKN10applesauce2CF9StringRefES5_S5_S5_, 
                       __ZNK4AMCP6Object20is_property_settableERKNS_7AddressE, __ZNK4AMCP6Object21get_configuration_appERKN10applesauce2CF9StringRefE, 
                       __ZNK4AMCP6Object21get_configuration_appEv, __ZNK4AMCP6Object21get_manufacturer_nameERKN10applesauce2CF9StringRefE, 
                       __ZNK4AMCP6Object21get_manufacturer_nameEv, __ZNK4AMCP6Object21get_owned_object_listEv, 
                       __ZNK4AMCP6Object22get_property_type_hintERKNS_7AddressE, 
                       __ZNK4AMCP6Object23get_element_number_nameERKNS_7AddressE, 
                       __ZNK4AMCP6Object23get_element_number_nameERKNS_7AddressERKN10applesauce2CF9StringRefE, 
                       __ZNK4AMCP6Object23get_resource_bundle_urlERKN10applesauce2CF6URLRefE, 
                       __ZNK4AMCP6Object23get_resource_bundle_urlEv, __ZNK4AMCP6Object25get_element_category_nameERKNS_7AddressE, 
                       __ZNK4AMCP6Object25get_element_category_nameERKNS_7AddressERKN10applesauce2CF9StringRefE, 
                       __ZNK4AMCP6Object27set_property_value_and_waitERKNS_7AddressERKNS_5ThingE, 
                       __ZNK4AMCP6Object33get_property_value_with_qualifierERKNS_7AddressERKNS_5ThingE, 
                       __ZNK4AMCP6Object33get_property_value_with_qualifierERKNS_7AddressERKNS_5ThingES6_, 
                       __ZNK4AMCP6Object33set_property_value_with_qualifierERKNS_7AddressERKNS_5ThingES6_, 
                       __ZNK4AMCP6Object42set_property_value_with_qualifier_and_waitERKNS_7AddressERKNS_5ThingES6_, 
                       __ZNK4AMCP6Object7expiredEv, __ZNK4AMCP6Object8get_iconERKN10applesauce2CF6URLRefE, 
                       __ZNK4AMCP6Object8get_iconEv, __ZNK4AMCP6Object8get_nameERKN10applesauce2CF9StringRefE, 
                       __ZNK4AMCP6Object8get_nameEv, __ZNK4AMCP6Object9get_ownerEv, 
                       __ZNK4AMCP6System12get_box_listEv, __ZNK4AMCP6System13get_node_listEv, 
                       __ZNK4AMCP6System14get_clock_listEv, __ZNK4AMCP6System15get_device_listEv, 
                       __ZNK4AMCP6System15get_driver_listEv, __ZNK4AMCP6System19get_io_context_listEv, 
                       __ZNK4AMCP6System31wait_for_notification_quiesenceEd, __ZNK4AMCP6System32create_ioc_graph_update_observerERKNSt3__14pairINS1_8functionIFNS2_INS_17Graph_DescriptionENS_25Modify_Graph_Destroy_ListEEEvEEENS3_IFvRKS4_EEEEE, 
                       __ZNK4AMCP6System33create_end_config_change_observerERKNSt3__18functionIFvjRKNS1_5tupleIJNS1_6vectorIjNS1_9allocatorIjEEEES7_N5boost9container8flat_mapIjNS3_IJNSA_INS_7AddressENS_5ThingENSB_15Is_Exact_BeforeEvEESE_SE_EEENS1_4lessIjEEvEEEEEEEE, 
                       __ZNK4AMCP6System33create_end_config_change_observerERKNSt3__18functionIFvjbRKNS1_5tupleIJNS1_6vectorIjNS1_9allocatorIjEEEES7_N5boost9container8flat_mapIjNS3_IJNSA_INS_7AddressENS_5ThingENSB_15Is_Exact_BeforeEvEESE_SE_EEENS1_4lessIjEEvEEEEEEEE, 
                       __ZNK4AMCP6System35create_begin_config_change_observerERKNSt3__18functionIFvjEEE, 
                       __ZNK4AMCP6System35create_begin_config_change_observerERKNSt3__18functionIFvjbRKNS1_5tupleIJNS1_6vectorIjNS1_9allocatorIjEEEES7_N5boost9container8flat_mapIjNS3_IJNSA_INS_7AddressENS_5ThingENSB_15Is_Exact_BeforeEvEESE_SE_EEENS1_4lessIjEEvEEEEEEEE, 
                       __ZNK4AMCP6System35execute_task_against_config_changesERKNSt3__18functionIFvvEEE, 
                       __ZNK4AMCP6System38find_devices_to_stop_for_config_changeEj, 
                       __ZNK4AMCP6System40create_continuing_config_change_observerERKNSt3__18functionIFvjbRKNS1_5tupleIJNS1_6vectorIjNS1_9allocatorIjEEEES7_N5boost9container8flat_mapIjNS3_IJNSA_INS_7AddressENS_5ThingENSB_15Is_Exact_BeforeEvEESE_SE_EEENS1_4lessIjEEvEEEEEEEE, 
                       __ZNK4AMCP6System41execute_task_against_config_changes_asyncERKNSt3__18functionIFvvEEE, 
                       __ZNK4AMCP9IOContext11get_latencyEv, __ZNK4AMCP9IOContext12stop_runningEv, 
                       __ZNK4AMCP9IOContext13get_tail_timeEv, __ZNK4AMCP9IOContext13start_runningEb, 
                       __ZNK4AMCP9IOContext13start_runningEv, __ZNK4AMCP9IOContext15stop_prewarmingEv, 
                       __ZNK4AMCP9IOContext16start_prewarmingEb, __ZNK4AMCP9IOContext16start_prewarmingEv, 
                       __ZNK4AMCP9IOContext18get_io_cycle_usageEv, __ZNK4AMCP9IOContext19get_transport_stateEv, 
                       __ZNK4AMCP9IOContext21get_buffer_frame_sizeEv, __ZNK4AMCP9IOContext22get_actual_sample_rateEv, 
                       __ZNK4AMCP9IOContext33get_min_and_max_buffer_frame_sizeEv, 
                       __ZNK4AMCP9IOContext38will_handle_overload_with_catchup_modeEv, 
                       __ZTIN4AMCP4NodeE, __ZTIN4AMCP5ClockE, __ZTIN4AMCP6DriverE, 
                       __ZTIN4AMCP6ObjectE, __ZTIN4AMCP6SystemE, __ZTIN4AMCP9IOContextE, 
                       __ZTSN4AMCP4NodeE, __ZTSN4AMCP5ClockE, __ZTSN4AMCP6DriverE, 
                       __ZTSN4AMCP6ObjectE, __ZTSN4AMCP6SystemE, __ZTSN4AMCP9IOContextE, 
                       __ZTVN4AMCP4NodeE, __ZTVN4AMCP5ClockE, __ZTVN4AMCP6DriverE, 
                       __ZTVN4AMCP6ObjectE, __ZTVN4AMCP6SystemE, __ZTVN4AMCP9IOContextE ]
...
